target datalayout = "e-m:e-p270:32:32-p271:32:32-p272:64:64-i64:64-i128:128-f80:128-n8:16:32:64-S128"
target triple = "x86_64-pc-linux-gnu"

%struct._object = type { %union.anon, ptr }
%union.anon = type { i64 }
%struct.PyVarObject = type { %struct._object, i64 }
%struct._typeobject = type { %struct.PyVarObject, ptr, i64, i64, ptr, i64, ptr, ptr, ptr, ptr, ptr, ptr, ptr, ptr, ptr, ptr, ptr, ptr, ptr, i64, ptr, ptr, ptr, ptr, i64, ptr, ptr, ptr, ptr, ptr, ptr, ptr, ptr, ptr, i64, ptr, ptr, ptr, ptr, ptr, ptr, ptr, ptr, ptr, ptr, ptr, i32, ptr, ptr, i8, i16 }
%struct.PyListObject = type { %struct.PyVarObject, ptr, i64 }
%struct._PyDictViewObject = type { %struct._object, ptr }
%struct.PySetObject = type { %struct._object, i64, i64, i64, ptr, i64, i64, [8 x %struct.setentry], ptr }
%struct.setentry = type { ptr, i64 }

@PyTuple_Type = external global %struct._typeobject, align 8
@PySet_Type = external global %struct._typeobject, align 8
@PyFrozenSet_Type = external global %struct._typeobject, align 8
@PyDict_Type = external global %struct._typeobject, align 8
@PyDictKeys_Type = external global %struct._typeobject, align 8
@PyDictValues_Type = external global %struct._typeobject, align 8
@PyDictItems_Type = external global %struct._typeobject, align 8

; Function Attrs: nounwind uwtable
define internal void @ensure_shared_on_resize(ptr noundef %0) #0 {
  %2 = alloca ptr, align 8
  store ptr %0, ptr %2, align 8, !tbaa !27
  ret void
}

; Function Attrs: inlinehint nounwind uwtable
define internal void @Py_SET_SIZE(ptr noundef %0, i64 noundef %1) #2 {
  %3 = alloca ptr, align 8
  %4 = alloca i64, align 8
  store ptr %0, ptr %3, align 8, !tbaa !27
  store i64 %1, ptr %4, align 8, !tbaa !26
  %5 = load i64, ptr %4, align 8, !tbaa !26
  %6 = load ptr, ptr %3, align 8, !tbaa !27
  %7 = getelementptr inbounds nuw %struct.PyVarObject, ptr %6, i32 0, i32 1
  store i64 %5, ptr %7, align 8, !tbaa !38
  ret void
}

; Function Attrs: nounwind uwtable
define internal i32 @list_resize(ptr noundef %0, i64 noundef %1) #0 {
  %3 = alloca i32, align 4
  %4 = alloca ptr, align 8
  %5 = alloca i64, align 8
  %6 = alloca i64, align 8
  %7 = alloca i64, align 8
  %8 = alloca i64, align 8
  %9 = alloca i32, align 4
  %10 = alloca ptr, align 8
  store ptr %0, ptr %4, align 8, !tbaa !27
  store i64 %1, ptr %5, align 8, !tbaa !26
  call void @llvm.lifetime.start.p0(i64 8, ptr %6) #8
  call void @llvm.lifetime.start.p0(i64 8, ptr %7) #8
  call void @llvm.lifetime.start.p0(i64 8, ptr %8) #8
  %11 = load ptr, ptr %4, align 8, !tbaa !27
  %12 = getelementptr inbounds nuw %struct.PyListObject, ptr %11, i32 0, i32 2
  %13 = load i64, ptr %12, align 8, !tbaa !33
  store i64 %13, ptr %8, align 8, !tbaa !26
  %14 = load i64, ptr %8, align 8, !tbaa !26
  %15 = load i64, ptr %5, align 8, !tbaa !26
  %16 = icmp sge i64 %14, %15
  br i1 %16, label %17, label %25

17:                                               ; preds = %2
  %18 = load i64, ptr %5, align 8, !tbaa !26
  %19 = load i64, ptr %8, align 8, !tbaa !26
  %20 = ashr i64 %19, 1
  %21 = icmp sge i64 %18, %20
  br i1 %21, label %22, label %25

22:                                               ; preds = %17
  %23 = load ptr, ptr %4, align 8, !tbaa !27
  %24 = load i64, ptr %5, align 8, !tbaa !26
  call void @Py_SET_SIZE(ptr noundef %23, i64 noundef %24)
  store i32 0, ptr %3, align 4
  store i32 1, ptr %9, align 4
  br label %76

25:                                               ; preds = %17, %2
  %26 = load i64, ptr %5, align 8, !tbaa !26
  %27 = load i64, ptr %5, align 8, !tbaa !26
  %28 = ashr i64 %27, 3
  %29 = add i64 %26, %28
  %30 = add i64 %29, 6
  %31 = and i64 %30, -4
  store i64 %31, ptr %6, align 8, !tbaa !26
  %32 = load i64, ptr %5, align 8, !tbaa !26
  %33 = load ptr, ptr %4, align 8, !tbaa !27
  %34 = call i64 @Py_SIZE(ptr noundef %33)
  %35 = sub i64 %32, %34
  %36 = load i64, ptr %6, align 8, !tbaa !26
  %37 = load i64, ptr %5, align 8, !tbaa !26
  %38 = sub i64 %36, %37
  %39 = icmp sgt i64 %35, %38
  br i1 %39, label %40, label %44

40:                                               ; preds = %25
  %41 = load i64, ptr %5, align 8, !tbaa !26
  %42 = add i64 %41, 3
  %43 = and i64 %42, -4
  store i64 %43, ptr %6, align 8, !tbaa !26
  br label %44

44:                                               ; preds = %40, %25
  %45 = load i64, ptr %5, align 8, !tbaa !26
  %46 = icmp eq i64 %45, 0
  br i1 %46, label %47, label %48

47:                                               ; preds = %44
  store i64 0, ptr %6, align 8, !tbaa !26
  br label %48

48:                                               ; preds = %47, %44
  %49 = load ptr, ptr %4, align 8, !tbaa !27
  call void @ensure_shared_on_resize(ptr noundef %49)
  call void @llvm.lifetime.start.p0(i64 8, ptr %10) #8
  %50 = load i64, ptr %6, align 8, !tbaa !26
  %51 = icmp ule i64 %50, 1152921504606846975
  br i1 %51, label %52, label %60

52:                                               ; preds = %48
  %53 = load i64, ptr %6, align 8, !tbaa !26
  %54 = mul i64 %53, 8
  store i64 %54, ptr %7, align 8, !tbaa !26
  %55 = load ptr, ptr %4, align 8, !tbaa !27
  %56 = getelementptr inbounds nuw %struct.PyListObject, ptr %55, i32 0, i32 1
  %57 = load ptr, ptr %56, align 8, !tbaa !28
  %58 = load i64, ptr %7, align 8, !tbaa !26
  %59 = call ptr @PyMem_Realloc(ptr noundef %57, i64 noundef %58)
  store ptr %59, ptr %10, align 8, !tbaa !119
  br label %61

60:                                               ; preds = %48
  store ptr null, ptr %10, align 8, !tbaa !119
  br label %61

61:                                               ; preds = %60, %52
  %62 = load ptr, ptr %10, align 8, !tbaa !119
  %63 = icmp eq ptr %62, null
  br i1 %63, label %64, label %66

64:                                               ; preds = %61
  %65 = call ptr @PyErr_NoMemory()
  store i32 -1, ptr %3, align 4
  store i32 1, ptr %9, align 4
  br label %75

66:                                               ; preds = %61
  %67 = load ptr, ptr %10, align 8, !tbaa !119
  %68 = load ptr, ptr %4, align 8, !tbaa !27
  %69 = getelementptr inbounds nuw %struct.PyListObject, ptr %68, i32 0, i32 1
  store ptr %67, ptr %69, align 8, !tbaa !28
  %70 = load ptr, ptr %4, align 8, !tbaa !27
  %71 = load i64, ptr %5, align 8, !tbaa !26
  call void @Py_SET_SIZE(ptr noundef %70, i64 noundef %71)
  %72 = load i64, ptr %6, align 8, !tbaa !26
  %73 = load ptr, ptr %4, align 8, !tbaa !27
  %74 = getelementptr inbounds nuw %struct.PyListObject, ptr %73, i32 0, i32 2
  store i64 %72, ptr %74, align 8, !tbaa !33
  store i32 0, ptr %3, align 4
  store i32 1, ptr %9, align 4
  br label %75

75:                                               ; preds = %66, %64
  call void @llvm.lifetime.end.p0(i64 8, ptr %10) #8
  br label %76

76:                                               ; preds = %75, %22
  call void @llvm.lifetime.end.p0(i64 8, ptr %8) #8
  call void @llvm.lifetime.end.p0(i64 8, ptr %7) #8
  call void @llvm.lifetime.end.p0(i64 8, ptr %6) #8
  %77 = load i32, ptr %3, align 4
  ret i32 %77
}

; Function Attrs: inlinehint nounwind uwtable
define internal i64 @PySet_GET_SIZE(ptr noundef %0) #2 {
  %2 = alloca ptr, align 8
  store ptr %0, ptr %2, align 8, !tbaa !36
  %3 = load ptr, ptr %2, align 8, !tbaa !36
  %4 = getelementptr inbounds nuw %struct.PySetObject, ptr %3, i32 0, i32 2
  %5 = load i64, ptr %4, align 8, !tbaa !171
  ret i64 %5
}

; Function Attrs: inlinehint nounwind uwtable
define internal i64 @Py_SIZE(ptr noundef %0) #2 {
  %2 = alloca ptr, align 8
  store ptr %0, ptr %2, align 8, !tbaa !36
  %3 = load ptr, ptr %2, align 8, !tbaa !36
  %4 = getelementptr inbounds nuw %struct.PyVarObject, ptr %3, i32 0, i32 1
  %5 = load i64, ptr %4, align 8, !tbaa !38
  ret i64 %5
}

; Function Attrs: inlinehint nounwind uwtable
define internal ptr @_Py_TYPE(ptr noundef %0) #2 {
  %2 = alloca ptr, align 8
  store ptr %0, ptr %2, align 8, !tbaa !36
  %3 = load ptr, ptr %2, align 8, !tbaa !36
  %4 = getelementptr inbounds nuw %struct._object, ptr %3, i32 0, i32 1
  %5 = load ptr, ptr %4, align 8, !tbaa !117
  ret ptr %5
}

; Function Attrs: nounwind uwtable
define internal i32 @list_extend_set(ptr noundef %0, ptr noundef %1) #0 {
  %3 = alloca i32, align 4
  %4 = alloca ptr, align 8
  %5 = alloca ptr, align 8
  %6 = alloca i64, align 8
  %7 = alloca i64, align 8
  %8 = alloca i32, align 4
  %9 = alloca i64, align 8
  %10 = alloca i64, align 8
  %11 = alloca ptr, align 8
  %12 = alloca ptr, align 8
  store ptr %0, ptr %4, align 8, !tbaa !27
  store ptr %1, ptr %5, align 8, !tbaa !27
  call void @llvm.lifetime.start.p0(i64 8, ptr %6) #8
  %13 = load ptr, ptr %4, align 8, !tbaa !27
  %14 = call i64 @Py_SIZE(ptr noundef %13)
  store i64 %14, ptr %6, align 8, !tbaa !26
  call void @llvm.lifetime.start.p0(i64 8, ptr %7) #8
  %15 = load ptr, ptr %5, align 8, !tbaa !27
  %16 = call i64 @PySet_GET_SIZE(ptr noundef %15)
  store i64 %16, ptr %7, align 8, !tbaa !26
  %17 = load ptr, ptr %4, align 8, !tbaa !27
  %18 = load i64, ptr %6, align 8, !tbaa !26
  %19 = load i64, ptr %7, align 8, !tbaa !26
  %20 = add i64 %18, %19
  %21 = call i32 @list_resize(ptr noundef %17, i64 noundef %20)
  %22 = icmp slt i32 %21, 0
  br i1 %22, label %23, label %24

23:                                               ; preds = %2
  store i32 -1, ptr %3, align 4
  store i32 1, ptr %8, align 4
  br label %44

24:                                               ; preds = %2
  call void @llvm.lifetime.start.p0(i64 8, ptr %9) #8
  store i64 0, ptr %9, align 8, !tbaa !26
  call void @llvm.lifetime.start.p0(i64 8, ptr %10) #8
  call void @llvm.lifetime.start.p0(i64 8, ptr %11) #8
  call void @llvm.lifetime.start.p0(i64 8, ptr %12) #8
  %25 = load ptr, ptr %4, align 8, !tbaa !27
  %26 = getelementptr inbounds nuw %struct.PyListObject, ptr %25, i32 0, i32 1
  %27 = load ptr, ptr %26, align 8, !tbaa !28
  %28 = load i64, ptr %6, align 8, !tbaa !26
  %29 = getelementptr ptr, ptr %27, i64 %28
  store ptr %29, ptr %12, align 8, !tbaa !119
  br label %30

30:                                               ; preds = %34, %24
  %31 = load ptr, ptr %5, align 8, !tbaa !27
  %32 = call i32 @_PySet_NextEntryRef(ptr noundef %31, ptr noundef %9, ptr noundef %11, ptr noundef %10)
  %33 = icmp ne i32 %32, 0
  br i1 %33, label %34, label %39

34:                                               ; preds = %30
  %35 = load ptr, ptr %11, align 8, !tbaa !36
  %36 = load ptr, ptr %12, align 8, !tbaa !119
  store ptr %35, ptr %36, align 8, !tbaa !36
  %37 = load ptr, ptr %12, align 8, !tbaa !119
  %38 = getelementptr ptr, ptr %37, i32 1
  store ptr %38, ptr %12, align 8, !tbaa !119
  br label %30, !llvm.loop !165

39:                                               ; preds = %30
  %40 = load ptr, ptr %4, align 8, !tbaa !27
  %41 = load i64, ptr %6, align 8, !tbaa !26
  %42 = load i64, ptr %7, align 8, !tbaa !26
  %43 = add i64 %41, %42
  call void @Py_SET_SIZE(ptr noundef %40, i64 noundef %43)
  store i32 0, ptr %3, align 4
  store i32 1, ptr %8, align 4
  call void @llvm.lifetime.end.p0(i64 8, ptr %12) #8
  call void @llvm.lifetime.end.p0(i64 8, ptr %11) #8
  call void @llvm.lifetime.end.p0(i64 8, ptr %10) #8
  call void @llvm.lifetime.end.p0(i64 8, ptr %9) #8
  br label %44

44:                                               ; preds = %39, %23
  call void @llvm.lifetime.end.p0(i64 8, ptr %7) #8
  call void @llvm.lifetime.end.p0(i64 8, ptr %6) #8
  %45 = load i32, ptr %3, align 4
  ret i32 %45
}

; Function Attrs: inlinehint nounwind uwtable
define internal i32 @Py_IS_TYPE(ptr noundef %0, ptr noundef %1) #2 {
  %3 = alloca ptr, align 8
  %4 = alloca ptr, align 8
  store ptr %0, ptr %3, align 8, !tbaa !36
  store ptr %1, ptr %4, align 8, !tbaa !110
  %5 = load ptr, ptr %3, align 8, !tbaa !36
  %6 = call ptr @_Py_TYPE(ptr noundef %5)
  %7 = load ptr, ptr %4, align 8, !tbaa !110
  %8 = icmp eq ptr %6, %7
  %9 = zext i1 %8 to i32
  ret i32 %9
}

; Function Attrs: nounwind uwtable
define internal i32 @_list_extend(ptr noundef %0, ptr noundef %1) #0 {
  %3 = alloca ptr, align 8
  %4 = alloca ptr, align 8
  %5 = alloca i32, align 4
  %6 = alloca ptr, align 8
  %7 = alloca ptr, align 8
  %8 = alloca ptr, align 8
  store ptr %0, ptr %3, align 8, !tbaa !27
  store ptr %1, ptr %4, align 8, !tbaa !36
  call void @llvm.lifetime.start.p0(i64 4, ptr %5) #8
  store i32 -1, ptr %5, align 4, !tbaa !118
  %9 = load ptr, ptr %3, align 8, !tbaa !27
  %10 = load ptr, ptr %4, align 8, !tbaa !36
  %11 = icmp eq ptr %9, %10
  br i1 %11, label %12, label %15

12:                                               ; preds = %2
  %13 = load ptr, ptr %3, align 8, !tbaa !27
  %14 = call i32 @list_inplace_repeat_lock_held(ptr noundef %13, i64 noundef 2)
  store i32 %14, ptr %5, align 4, !tbaa !118
  br label %95

15:                                               ; preds = %2
  %16 = load ptr, ptr %4, align 8, !tbaa !36
  %17 = call i32 @Py_IS_TYPE(ptr noundef %16, ptr noundef @PyList_Type)
  %18 = icmp ne i32 %17, 0
  br i1 %18, label %19, label %23

19:                                               ; preds = %15
  %20 = load ptr, ptr %3, align 8, !tbaa !27
  %21 = load ptr, ptr %4, align 8, !tbaa !36
  %22 = call i32 @list_extend_lock_held(ptr noundef %20, ptr noundef %21)
  store i32 %22, ptr %5, align 4, !tbaa !118
  br label %94

23:                                               ; preds = %15
  %24 = load ptr, ptr %4, align 8, !tbaa !36
  %25 = call i32 @Py_IS_TYPE(ptr noundef %24, ptr noundef @PyTuple_Type)
  %26 = icmp ne i32 %25, 0
  br i1 %26, label %27, label %31

27:                                               ; preds = %23
  %28 = load ptr, ptr %3, align 8, !tbaa !27
  %29 = load ptr, ptr %4, align 8, !tbaa !36
  %30 = call i32 @list_extend_lock_held(ptr noundef %28, ptr noundef %29)
  store i32 %30, ptr %5, align 4, !tbaa !118
  br label %93

31:                                               ; preds = %23
  %32 = load ptr, ptr %4, align 8, !tbaa !36
  %33 = call i32 @Py_IS_TYPE(ptr noundef %32, ptr noundef @PySet_Type)
  %34 = icmp ne i32 %33, 0
  br i1 %34, label %39, label %35

35:                                               ; preds = %31
  %36 = load ptr, ptr %4, align 8, !tbaa !36
  %37 = call i32 @Py_IS_TYPE(ptr noundef %36, ptr noundef @PyFrozenSet_Type)
  %38 = icmp ne i32 %37, 0
  br i1 %38, label %39, label %43

39:                                               ; preds = %35, %31
  %40 = load ptr, ptr %3, align 8, !tbaa !27
  %41 = load ptr, ptr %4, align 8, !tbaa !36
  %42 = call i32 @list_extend_set(ptr noundef %40, ptr noundef %41)
  store i32 %42, ptr %5, align 4, !tbaa !118
  br label %92

43:                                               ; preds = %35
  %44 = load ptr, ptr %4, align 8, !tbaa !36
  %45 = call i32 @Py_IS_TYPE(ptr noundef %44, ptr noundef @PyDict_Type)
  %46 = icmp ne i32 %45, 0
  br i1 %46, label %47, label %51

47:                                               ; preds = %43
  %48 = load ptr, ptr %3, align 8, !tbaa !27
  %49 = load ptr, ptr %4, align 8, !tbaa !36
  %50 = call i32 @list_extend_dict(ptr noundef %48, ptr noundef %49, i32 noundef 0)
  store i32 %50, ptr %5, align 4, !tbaa !118
  br label %91

51:                                               ; preds = %43
  %52 = load ptr, ptr %4, align 8, !tbaa !36
  %53 = call i32 @Py_IS_TYPE(ptr noundef %52, ptr noundef @PyDictKeys_Type)
  %54 = icmp ne i32 %53, 0
  br i1 %54, label %55, label %62

55:                                               ; preds = %51
  call void @llvm.lifetime.start.p0(i64 8, ptr %6) #8
  %56 = load ptr, ptr %4, align 8, !tbaa !36
  %57 = getelementptr inbounds nuw %struct._PyDictViewObject, ptr %56, i32 0, i32 1
  %58 = load ptr, ptr %57, align 8, !tbaa !123
  store ptr %58, ptr %6, align 8, !tbaa !27
  %59 = load ptr, ptr %3, align 8, !tbaa !27
  %60 = load ptr, ptr %6, align 8, !tbaa !27
  %61 = call i32 @list_extend_dict(ptr noundef %59, ptr noundef %60, i32 noundef 0)
  store i32 %61, ptr %5, align 4, !tbaa !118
  call void @llvm.lifetime.end.p0(i64 8, ptr %6) #8
  br label %90

62:                                               ; preds = %51
  %63 = load ptr, ptr %4, align 8, !tbaa !36
  %64 = call i32 @Py_IS_TYPE(ptr noundef %63, ptr noundef @PyDictValues_Type)
  %65 = icmp ne i32 %64, 0
  br i1 %65, label %66, label %73

66:                                               ; preds = %62
  call void @llvm.lifetime.start.p0(i64 8, ptr %7) #8
  %67 = load ptr, ptr %4, align 8, !tbaa !36
  %68 = getelementptr inbounds nuw %struct._PyDictViewObject, ptr %67, i32 0, i32 1
  %69 = load ptr, ptr %68, align 8, !tbaa !123
  store ptr %69, ptr %7, align 8, !tbaa !27
  %70 = load ptr, ptr %3, align 8, !tbaa !27
  %71 = load ptr, ptr %7, align 8, !tbaa !27
  %72 = call i32 @list_extend_dict(ptr noundef %70, ptr noundef %71, i32 noundef 1)
  store i32 %72, ptr %5, align 4, !tbaa !118
  call void @llvm.lifetime.end.p0(i64 8, ptr %7) #8
  br label %89

73:                                               ; preds = %62
  %74 = load ptr, ptr %4, align 8, !tbaa !36
  %75 = call i32 @Py_IS_TYPE(ptr noundef %74, ptr noundef @PyDictItems_Type)
  %76 = icmp ne i32 %75, 0
  br i1 %76, label %77, label %84

77:                                               ; preds = %73
  call void @llvm.lifetime.start.p0(i64 8, ptr %8) #8
  %78 = load ptr, ptr %4, align 8, !tbaa !36
  %79 = getelementptr inbounds nuw %struct._PyDictViewObject, ptr %78, i32 0, i32 1
  %80 = load ptr, ptr %79, align 8, !tbaa !123
  store ptr %80, ptr %8, align 8, !tbaa !27
  %81 = load ptr, ptr %3, align 8, !tbaa !27
  %82 = load ptr, ptr %8, align 8, !tbaa !27
  %83 = call i32 @list_extend_dictitems(ptr noundef %81, ptr noundef %82)
  store i32 %83, ptr %5, align 4, !tbaa !118
  call void @llvm.lifetime.end.p0(i64 8, ptr %8) #8
  br label %88

84:                                               ; preds = %73
  %85 = load ptr, ptr %3, align 8, !tbaa !27
  %86 = load ptr, ptr %4, align 8, !tbaa !36
  %87 = call i32 @list_extend_iter_lock_held(ptr noundef %85, ptr noundef %86)
  store i32 %87, ptr %5, align 4, !tbaa !118
  br label %88

88:                                               ; preds = %84, %77
  br label %89

89:                                               ; preds = %88, %66
  br label %90

90:                                               ; preds = %89, %55
  br label %91

91:                                               ; preds = %90, %47
  br label %92

92:                                               ; preds = %91, %39
  br label %93

93:                                               ; preds = %92, %27
  br label %94

94:                                               ; preds = %93, %19
  br label %95

95:                                               ; preds = %94, %12
  %96 = load i32, ptr %5, align 4, !tbaa !118
  call void @llvm.lifetime.end.p0(i64 4, ptr %5) #8
  ret i32 %96
}