; Function Attrs: nounwind uwtable
define internal fastcc range(i32 -1, 1) i32 @_list_extend(ptr noundef %0, ptr noundef %1) unnamed_addr #0 {
  %3 = alloca i64, align 8
  %4 = alloca i64, align 8
  %5 = alloca ptr, align 8
  %6 = icmp eq ptr %0, %1
  br i1 %6, label %7, label %9

7:                                                ; preds = %2
  %8 = tail call fastcc i32 @list_inplace_repeat_lock_held(ptr noundef %0, i64 noundef 2)
  br label %list_extend_set.exit

9:                                                ; preds = %2
  %10 = getelementptr i8, ptr %1, i64 8
  %.val = load ptr, ptr %10, align 8, !tbaa !105
  %.not = icmp eq ptr %.val, @PyList_Type
  br i1 %.not, label %11, label %13

11:                                               ; preds = %9
  %12 = tail call fastcc i32 @list_extend_lock_held(ptr noundef %0, ptr noundef nonnull %1)
  br label %list_extend_set.exit

13:                                               ; preds = %9
  %.not46 = icmp eq ptr %.val, @PyTuple_Type
  br i1 %.not46, label %14, label %16

14:                                               ; preds = %13
  %15 = tail call fastcc i32 @list_extend_lock_held(ptr noundef %0, ptr noundef nonnull %1)
  br label %list_extend_set.exit

16:                                               ; preds = %13
  %.not47 = icmp eq ptr %.val, @PySet_Type
  %.not48 = icmp eq ptr %.val, @PyFrozenSet_Type
  %or.cond = or i1 %.not47, %.not48
  br i1 %or.cond, label %17, label %51

17:                                               ; preds = %16
  %18 = getelementptr i8, ptr %0, i64 16
  %.val.i = load i64, ptr %18, align 8, !tbaa !33
  %19 = getelementptr i8, ptr %1, i64 24
  %.val14.i = load i64, ptr %19, align 8, !tbaa !116
  %20 = add i64 %.val14.i, %.val.i
  %21 = getelementptr inbounds nuw i8, ptr %0, i64 32
  %22 = load i64, ptr %21, align 8, !tbaa !34
  %.not.i.i = icmp slt i64 %22, %20
  %23 = ashr i64 %22, 1
  %.not32.i.i = icmp slt i64 %20, %23
  %or.cond.i.i = or i1 %.not.i.i, %.not32.i.i
  br i1 %or.cond.i.i, label %25, label %24

24:                                               ; preds = %17
  store i64 %20, ptr %18, align 8, !tbaa !33
  %.phi.trans.insert.i = getelementptr inbounds nuw i8, ptr %0, i64 24
  %.pre.i = load ptr, ptr %.phi.trans.insert.i, align 8, !tbaa !27
  br label %44

25:                                               ; preds = %17
  %26 = ashr i64 %20, 3
  %27 = add i64 %20, 6
  %28 = add i64 %27, %26
  %29 = and i64 %28, -4
  %30 = sub i64 %29, %20
  %31 = icmp sgt i64 %.val14.i, %30
  %32 = add i64 %20, 3
  %33 = and i64 %32, -4
  %.028.i.i = select i1 %31, i64 %33, i64 %29
  %34 = icmp eq i64 %20, 0
  %.129.i.i = select i1 %34, i64 0, i64 %.028.i.i
  %35 = icmp ult i64 %.129.i.i, 1152921504606846976
  br i1 %35, label %36, label %list_resize.exit.i

36:                                               ; preds = %25
  %37 = shl nuw nsw i64 %.129.i.i, 3
  %38 = getelementptr inbounds nuw i8, ptr %0, i64 24
  %39 = load ptr, ptr %38, align 8, !tbaa !27
  %40 = tail call ptr @PyMem_Realloc(ptr noundef %39, i64 noundef %37) #12
  %41 = icmp eq ptr %40, null
  br i1 %41, label %list_resize.exit.i, label %42

42:                                               ; preds = %36
  store ptr %40, ptr %38, align 8, !tbaa !27
  store i64 %20, ptr %18, align 8, !tbaa !33
  store i64 %.129.i.i, ptr %21, align 8, !tbaa !34
  br label %44

list_resize.exit.i:                               ; preds = %36, %25
  %43 = tail call ptr @PyErr_NoMemory() #12
  br label %list_extend_set.exit

44:                                               ; preds = %42, %24
  %45 = phi ptr [ %.pre.i, %24 ], [ %40, %42 ]
  call void @llvm.lifetime.start.p0(i64 8, ptr nonnull %3) #12
  store i64 0, ptr %3, align 8, !tbaa !118
  call void @llvm.lifetime.start.p0(i64 8, ptr nonnull %4) #12
  call void @llvm.lifetime.start.p0(i64 8, ptr nonnull %5) #12
  %46 = call i32 @_PySet_NextEntryRef(ptr noundef nonnull %1, ptr noundef nonnull %3, ptr noundef nonnull %5, ptr noundef nonnull %4) #12
  %.not16.i = icmp eq i32 %46, 0
  br i1 %.not16.i, label %._crit_edge.i, label %.lr.ph.preheader.i

.lr.ph.preheader.i:                               ; preds = %44
  %47 = getelementptr ptr, ptr %45, i64 %.val.i
  br label %.lr.ph.i

.lr.ph.i:                                         ; preds = %.lr.ph.i, %.lr.ph.preheader.i
  %.017.i = phi ptr [ %49, %.lr.ph.i ], [ %47, %.lr.ph.preheader.i ]
  %48 = load ptr, ptr %5, align 8, !tbaa !112
  store ptr %48, ptr %.017.i, align 8, !tbaa !112
  %49 = getelementptr i8, ptr %.017.i, i64 8
  %50 = call i32 @_PySet_NextEntryRef(ptr noundef nonnull %1, ptr noundef nonnull %3, ptr noundef nonnull %5, ptr noundef nonnull %4) #12
  %.not.i = icmp eq i32 %50, 0
  br i1 %.not.i, label %._crit_edge.i, label %.lr.ph.i, !llvm.loop !119

._crit_edge.i:                                    ; preds = %.lr.ph.i, %44
  store i64 %20, ptr %18, align 8, !tbaa !33
  call void @llvm.lifetime.end.p0(i64 8, ptr nonnull %5) #12
  call void @llvm.lifetime.end.p0(i64 8, ptr nonnull %4) #12
  call void @llvm.lifetime.end.p0(i64 8, ptr nonnull %3) #12
  br label %list_extend_set.exit

51:                                               ; preds = %16
  %.not49 = icmp eq ptr %.val, @PyDict_Type
  br i1 %.not49, label %52, label %54

52:                                               ; preds = %51
  %53 = tail call fastcc i32 @list_extend_dict(ptr noundef %0, ptr noundef nonnull %1, i32 noundef 0)
  br label %list_extend_set.exit

54:                                               ; preds = %51
  %.not50 = icmp eq ptr %.val, @PyDictKeys_Type
  br i1 %.not50, label %55, label %59

55:                                               ; preds = %54
  %56 = getelementptr inbounds nuw i8, ptr %1, i64 16
  %57 = load ptr, ptr %56, align 8, !tbaa !120
  %58 = tail call fastcc i32 @list_extend_dict(ptr noundef %0, ptr noundef %57, i32 noundef 0)
  br label %list_extend_set.exit

59:                                               ; preds = %54
  %.not51 = icmp eq ptr %.val, @PyDictValues_Type
  br i1 %.not51, label %60, label %64

60:                                               ; preds = %59
  %61 = getelementptr inbounds nuw i8, ptr %1, i64 16
  %62 = load ptr, ptr %61, align 8, !tbaa !120
  %63 = tail call fastcc i32 @list_extend_dict(ptr noundef %0, ptr noundef %62, i32 noundef 1)
  br label %list_extend_set.exit

64:                                               ; preds = %59
  %.not52 = icmp eq ptr %.val, @PyDictItems_Type
  br i1 %.not52, label %65, label %69

65:                                               ; preds = %64
  %66 = getelementptr inbounds nuw i8, ptr %1, i64 16
  %67 = load ptr, ptr %66, align 8, !tbaa !120
  %68 = tail call fastcc i32 @list_extend_dictitems(ptr noundef %0, ptr noundef %67)
  br label %list_extend_set.exit

69:                                               ; preds = %64
  %70 = tail call fastcc i32 @list_extend_iter_lock_held(ptr noundef %0, ptr noundef nonnull %1)
  br label %list_extend_set.exit

list_extend_set.exit:                             ; preds = %._crit_edge.i, %list_resize.exit.i, %11, %55, %65, %69, %60, %52, %14, %7
  %.0 = phi i32 [ %8, %7 ], [ %12, %11 ], [ %15, %14 ], [ %53, %52 ], [ %58, %55 ], [ %63, %60 ], [ %68, %65 ], [ %70, %69 ], [ 0, %._crit_edge.i ], [ -1, %list_resize.exit.i ]
  ret i32 %.0
}